target datalayout = "e-m:e-p270:32:32-p271:32:32-p272:64:64-i64:64-i128:128-f80:128-n8:16:32:64-S128"
target triple = "x86_64-pc-linux-gnu"

%struct._zval_struct = type { %union._zend_value, %union.anon, %union.anon.2 }
%union._zend_value = type { i64 }
%union.anon = type { i32 }
%union.anon.2 = type { i32 }
%struct._zend_refcounted_h = type { i32, %union.anon.3 }
%union.anon.3 = type { i32 }
%struct._Bucket = type { %struct._zval_struct, i64, ptr }
%struct._zend_string = type { %struct._zend_refcounted_h, i64, i64, [1 x i8] }

; Function Attrs: alwaysinline nounwind uwtable
define internal ptr @zend_print_ulong_to_buf(ptr noundef %0, i64 noundef %1) #5 {
  %3 = alloca ptr, align 8
  %4 = alloca i64, align 8
  store ptr %0, ptr %3, align 8, !tbaa !18
  store i64 %1, ptr %4, align 8, !tbaa !15
  %5 = load ptr, ptr %3, align 8, !tbaa !18
  store i8 0, ptr %5, align 1, !tbaa !17
  br label %6

6:                                                ; preds = %17, %2
  %7 = load i64, ptr %4, align 8, !tbaa !15
  %8 = urem i64 %7, 10
  %9 = trunc i64 %8 to i8
  %10 = sext i8 %9 to i32
  %11 = add nsw i32 %10, 48
  %12 = trunc i32 %11 to i8
  %13 = load ptr, ptr %3, align 8, !tbaa !18
  %14 = getelementptr inbounds i8, ptr %13, i32 -1
  store ptr %14, ptr %3, align 8, !tbaa !18
  store i8 %12, ptr %14, align 1, !tbaa !17
  %15 = load i64, ptr %4, align 8, !tbaa !15
  %16 = udiv i64 %15, 10
  store i64 %16, ptr %4, align 8, !tbaa !15
  br label %17

17:                                               ; preds = %6
  %18 = load i64, ptr %4, align 8, !tbaa !15
  %19 = icmp ugt i64 %18, 0
  br i1 %19, label %6, label %20

20:                                               ; preds = %17
  %21 = load ptr, ptr %3, align 8, !tbaa !18
  ret ptr %21
}

; Function Attrs: alwaysinline nounwind uwtable
define internal ptr @zend_print_long_to_buf(ptr noundef %0, i64 noundef %1) #5 {
  %3 = alloca ptr, align 8
  %4 = alloca ptr, align 8
  %5 = alloca i64, align 8
  %6 = alloca ptr, align 8
  store ptr %0, ptr %4, align 8, !tbaa !18
  store i64 %1, ptr %5, align 8, !tbaa !15
  %7 = load i64, ptr %5, align 8, !tbaa !15
  %8 = icmp slt i64 %7, 0
  br i1 %8, label %9, label %18

9:                                                ; preds = %2
  call void @llvm.lifetime.start.p0(i64 8, ptr %6) #17
  %10 = load ptr, ptr %4, align 8, !tbaa !18
  %11 = load i64, ptr %5, align 8, !tbaa !15
  %12 = xor i64 %11, -1
  %13 = add i64 %12, 1
  %14 = call ptr @zend_print_ulong_to_buf(ptr noundef %10, i64 noundef %13)
  store ptr %14, ptr %6, align 8, !tbaa !18
  %15 = load ptr, ptr %6, align 8, !tbaa !18
  %16 = getelementptr inbounds i8, ptr %15, i32 -1
  store ptr %16, ptr %6, align 8, !tbaa !18
  store i8 45, ptr %16, align 1, !tbaa !17
  %17 = load ptr, ptr %6, align 8, !tbaa !18
  store ptr %17, ptr %3, align 8
  call void @llvm.lifetime.end.p0(i64 8, ptr %6) #17
  br label %22

18:                                               ; preds = %2
  %19 = load ptr, ptr %4, align 8, !tbaa !18
  %20 = load i64, ptr %5, align 8, !tbaa !15
  %21 = call ptr @zend_print_ulong_to_buf(ptr noundef %19, i64 noundef %20)
  store ptr %21, ptr %3, align 8
  br label %22

22:                                               ; preds = %18, %9
  %23 = load ptr, ptr %3, align 8
  ret ptr %23
}

; Function Attrs: alwaysinline nounwind uwtable
define internal i32 @php_array_key_compare_string_locale_unstable_i(ptr noundef %0, ptr noundef %1) #5 {
  %3 = alloca ptr, align 8
  %4 = alloca ptr, align 8
  %5 = alloca ptr, align 8
  %6 = alloca ptr, align 8
  %7 = alloca [21 x i8], align 16
  %8 = alloca [21 x i8], align 16
  store ptr %0, ptr %3, align 8, !tbaa !85
  store ptr %1, ptr %4, align 8, !tbaa !85
  call void @llvm.lifetime.start.p0(i64 8, ptr %5) #17
  call void @llvm.lifetime.start.p0(i64 8, ptr %6) #17
  call void @llvm.lifetime.start.p0(i64 21, ptr %7) #17
  call void @llvm.lifetime.start.p0(i64 21, ptr %8) #17
  %9 = load ptr, ptr %3, align 8, !tbaa !85
  %10 = getelementptr inbounds nuw %struct._Bucket, ptr %9, i32 0, i32 2
  %11 = load ptr, ptr %10, align 8, !tbaa !118
  %12 = icmp ne ptr %11, null
  br i1 %12, label %13, label %19

13:                                               ; preds = %2
  %14 = load ptr, ptr %3, align 8, !tbaa !85
  %15 = getelementptr inbounds nuw %struct._Bucket, ptr %14, i32 0, i32 2
  %16 = load ptr, ptr %15, align 8, !tbaa !118
  %17 = getelementptr inbounds nuw %struct._zend_string, ptr %16, i32 0, i32 3
  %18 = getelementptr inbounds [1 x i8], ptr %17, i64 0, i64 0
  store ptr %18, ptr %5, align 8, !tbaa !18
  br label %27

19:                                               ; preds = %2
  %20 = getelementptr inbounds [21 x i8], ptr %7, i64 0, i64 0
  %21 = getelementptr inbounds nuw i8, ptr %20, i64 21
  %22 = getelementptr inbounds i8, ptr %21, i64 -1
  %23 = load ptr, ptr %3, align 8, !tbaa !85
  %24 = getelementptr inbounds nuw %struct._Bucket, ptr %23, i32 0, i32 1
  %25 = load i64, ptr %24, align 8, !tbaa !116
  %26 = call ptr @zend_print_long_to_buf(ptr noundef %22, i64 noundef %25)
  store ptr %26, ptr %5, align 8, !tbaa !18
  br label %27

27:                                               ; preds = %19, %13
  %28 = load ptr, ptr %4, align 8, !tbaa !85
  %29 = getelementptr inbounds nuw %struct._Bucket, ptr %28, i32 0, i32 2
  %30 = load ptr, ptr %29, align 8, !tbaa !118
  %31 = icmp ne ptr %30, null
  br i1 %31, label %32, label %38

32:                                               ; preds = %27
  %33 = load ptr, ptr %4, align 8, !tbaa !85
  %34 = getelementptr inbounds nuw %struct._Bucket, ptr %33, i32 0, i32 2
  %35 = load ptr, ptr %34, align 8, !tbaa !118
  %36 = getelementptr inbounds nuw %struct._zend_string, ptr %35, i32 0, i32 3
  %37 = getelementptr inbounds [1 x i8], ptr %36, i64 0, i64 0
  store ptr %37, ptr %6, align 8, !tbaa !18
  br label %46

38:                                               ; preds = %27
  %39 = getelementptr inbounds [21 x i8], ptr %8, i64 0, i64 0
  %40 = getelementptr inbounds nuw i8, ptr %39, i64 21
  %41 = getelementptr inbounds i8, ptr %40, i64 -1
  %42 = load ptr, ptr %4, align 8, !tbaa !85
  %43 = getelementptr inbounds nuw %struct._Bucket, ptr %42, i32 0, i32 1
  %44 = load i64, ptr %43, align 8, !tbaa !116
  %45 = call ptr @zend_print_long_to_buf(ptr noundef %41, i64 noundef %44)
  store ptr %45, ptr %6, align 8, !tbaa !18
  br label %46

46:                                               ; preds = %38, %32
  %47 = load ptr, ptr %5, align 8, !tbaa !18
  %48 = load ptr, ptr %6, align 8, !tbaa !18
  %49 = call i32 @strcoll(ptr noundef %47, ptr noundef %48) #22
  call void @llvm.lifetime.end.p0(i64 21, ptr %8) #17
  call void @llvm.lifetime.end.p0(i64 21, ptr %7) #17
  call void @llvm.lifetime.end.p0(i64 8, ptr %6) #17
  call void @llvm.lifetime.end.p0(i64 8, ptr %5) #17
  ret i32 %49
}

; Function Attrs: noinline nounwind uwtable
define internal i32 @php_array_key_compare_string_locale(ptr noundef %0, ptr noundef %1) #14 {
  %3 = alloca i32, align 4
  %4 = alloca ptr, align 8
  %5 = alloca ptr, align 8
  %6 = alloca i32, align 4
  %7 = alloca i32, align 4
  store ptr %0, ptr %4, align 8, !tbaa !85
  store ptr %1, ptr %5, align 8, !tbaa !85
  br label %8

8:                                                ; preds = %2
  call void @llvm.lifetime.start.p0(i64 4, ptr %6) #17
  %9 = load ptr, ptr %4, align 8, !tbaa !85
  %10 = load ptr, ptr %5, align 8, !tbaa !85
  %11 = call i32 @php_array_key_compare_string_locale_unstable_i(ptr noundef %9, ptr noundef %10)
  store i32 %11, ptr %6, align 4, !tbaa !4
  %12 = load i32, ptr %6, align 4, !tbaa !4
  %13 = icmp ne i32 %12, 0
  %14 = xor i1 %13, true
  %15 = xor i1 %14, true
  %16 = zext i1 %15 to i32
  %17 = sext i32 %16 to i64
  %18 = call i64 @llvm.expect.i64(i64 %17, i64 1)
  %19 = icmp ne i64 %18, 0
  br i1 %19, label %20, label %22

20:                                               ; preds = %8
  %21 = load i32, ptr %6, align 4, !tbaa !4
  store i32 %21, ptr %3, align 4
  store i32 1, ptr %7, align 4
  br label %26

22:                                               ; preds = %8
  %23 = load ptr, ptr %4, align 8, !tbaa !85
  %24 = load ptr, ptr %5, align 8, !tbaa !85
  %25 = call i32 @stable_sort_fallback(ptr noundef %23, ptr noundef %24)
  store i32 %25, ptr %3, align 4
  store i32 1, ptr %7, align 4
  br label %26

26:                                               ; preds = %22, %20
  call void @llvm.lifetime.end.p0(i64 4, ptr %6) #17
  br label %27

27:                                               ; preds = %26
  %28 = load i32, ptr %3, align 4
  ret i32 %28
}