; Function Attrs: nofree noinline nounwind memory(read) uwtable
define internal i32 @php_array_key_compare_string_locale(ptr noundef readonly captures(none) %0, ptr noundef readonly captures(none) %1) #17 {
  %3 = alloca [21 x i8], align 16
  %4 = alloca [21 x i8], align 16
  call void @llvm.lifetime.start.p0(i64 21, ptr nonnull %3) #21
  call void @llvm.lifetime.start.p0(i64 21, ptr nonnull %4) #21
  %5 = getelementptr inbounds nuw i8, ptr %0, i64 24
  %6 = load ptr, ptr %5, align 8, !tbaa !114
  %.not.i = icmp eq ptr %6, null
  br i1 %.not.i, label %9, label %7

7:                                                ; preds = %2
  %8 = getelementptr inbounds nuw i8, ptr %6, i64 24
  br label %zend_print_long_to_buf.exit13.i

9:                                                ; preds = %2
  %10 = getelementptr inbounds nuw i8, ptr %3, i64 20
  %11 = getelementptr inbounds nuw i8, ptr %0, i64 16
  %12 = load i64, ptr %11, align 8, !tbaa !116
  %13 = icmp slt i64 %12, 0
  br i1 %13, label %14, label %23

14:                                               ; preds = %9
  %15 = sub i64 0, %12
  store i8 0, ptr %10, align 4, !tbaa !8
  br label %16

16:                                               ; preds = %16, %14
  %.05.i.i = phi ptr [ %10, %14 ], [ %20, %16 ]
  %.0.i14.i = phi i64 [ %15, %14 ], [ %21, %16 ]
  %17 = urem i64 %.0.i14.i, 10
  %18 = trunc nuw nsw i64 %17 to i8
  %19 = or disjoint i8 %18, 48
  %20 = getelementptr inbounds i8, ptr %.05.i.i, i64 -1
  store i8 %19, ptr %20, align 1, !tbaa !8
  %21 = udiv i64 %.0.i14.i, 10
  %.not.i.i = icmp ult i64 %.0.i14.i, 10
  br i1 %.not.i.i, label %zend_print_ulong_to_buf.exit.i, label %16

zend_print_ulong_to_buf.exit.i:                   ; preds = %16
  %22 = getelementptr inbounds i8, ptr %.05.i.i, i64 -2
  store i8 45, ptr %22, align 1, !tbaa !8
  br label %zend_print_long_to_buf.exit13.i

23:                                               ; preds = %9
  store i8 0, ptr %10, align 4, !tbaa !8
  br label %24

24:                                               ; preds = %24, %23
  %.05.i15.i = phi ptr [ %10, %23 ], [ %28, %24 ]
  %.0.i16.i = phi i64 [ %12, %23 ], [ %29, %24 ]
  %25 = urem i64 %.0.i16.i, 10
  %26 = trunc nuw nsw i64 %25 to i8
  %27 = or disjoint i8 %26, 48
  %28 = getelementptr inbounds i8, ptr %.05.i15.i, i64 -1
  store i8 %27, ptr %28, align 1, !tbaa !8
  %29 = udiv i64 %.0.i16.i, 10
  %.not.i17.i = icmp ult i64 %.0.i16.i, 10
  br i1 %.not.i17.i, label %zend_print_long_to_buf.exit13.i, label %24

zend_print_long_to_buf.exit13.i:                  ; preds = %24, %zend_print_ulong_to_buf.exit.i, %7
  %.08.i = phi ptr [ %8, %7 ], [ %22, %zend_print_ulong_to_buf.exit.i ], [ %28, %24 ]
  %30 = getelementptr inbounds nuw i8, ptr %1, i64 24
  %31 = load ptr, ptr %30, align 8, !tbaa !114
  %.not11.i = icmp eq ptr %31, null
  br i1 %.not11.i, label %34, label %32

32:                                               ; preds = %zend_print_long_to_buf.exit13.i
  %33 = getelementptr inbounds nuw i8, ptr %31, i64 24
  br label %php_array_key_compare_string_locale_unstable_i.exit

34:                                               ; preds = %zend_print_long_to_buf.exit13.i
  %35 = getelementptr inbounds nuw i8, ptr %4, i64 20
  %36 = getelementptr inbounds nuw i8, ptr %1, i64 16
  %37 = load i64, ptr %36, align 8, !tbaa !116
  %38 = icmp slt i64 %37, 0
  br i1 %38, label %39, label %48

39:                                               ; preds = %34
  %40 = sub i64 0, %37
  store i8 0, ptr %35, align 4, !tbaa !8
  br label %41

41:                                               ; preds = %41, %39
  %.05.i19.i = phi ptr [ %35, %39 ], [ %45, %41 ]
  %.0.i20.i = phi i64 [ %40, %39 ], [ %46, %41 ]
  %42 = urem i64 %.0.i20.i, 10
  %43 = trunc nuw nsw i64 %42 to i8
  %44 = or disjoint i8 %43, 48
  %45 = getelementptr inbounds i8, ptr %.05.i19.i, i64 -1
  store i8 %44, ptr %45, align 1, !tbaa !8
  %46 = udiv i64 %.0.i20.i, 10
  %.not.i21.i = icmp ult i64 %.0.i20.i, 10
  br i1 %.not.i21.i, label %zend_print_ulong_to_buf.exit22.i, label %41

zend_print_ulong_to_buf.exit22.i:                 ; preds = %41
  %47 = getelementptr inbounds i8, ptr %.05.i19.i, i64 -2
  store i8 45, ptr %47, align 1, !tbaa !8
  br label %php_array_key_compare_string_locale_unstable_i.exit

48:                                               ; preds = %34
  store i8 0, ptr %35, align 4, !tbaa !8
  br label %49

49:                                               ; preds = %49, %48
  %.05.i23.i = phi ptr [ %35, %48 ], [ %53, %49 ]
  %.0.i24.i = phi i64 [ %37, %48 ], [ %54, %49 ]
  %50 = urem i64 %.0.i24.i, 10
  %51 = trunc nuw nsw i64 %50 to i8
  %52 = or disjoint i8 %51, 48
  %53 = getelementptr inbounds i8, ptr %.05.i23.i, i64 -1
  store i8 %52, ptr %53, align 1, !tbaa !8
  %54 = udiv i64 %.0.i24.i, 10
  %.not.i25.i = icmp ult i64 %.0.i24.i, 10
  br i1 %.not.i25.i, label %php_array_key_compare_string_locale_unstable_i.exit, label %49

php_array_key_compare_string_locale_unstable_i.exit: ; preds = %49, %zend_print_ulong_to_buf.exit22.i, %32
  %.0.i = phi ptr [ %33, %32 ], [ %47, %zend_print_ulong_to_buf.exit22.i ], [ %53, %49 ]
  %55 = call i32 @strcoll(ptr noundef nonnull %.08.i, ptr noundef nonnull %.0.i) #26
  call void @llvm.lifetime.end.p0(i64 21, ptr nonnull %4) #21
  call void @llvm.lifetime.end.p0(i64 21, ptr nonnull %3) #21
  %.not = icmp eq i32 %55, 0
  br i1 %.not, label %56, label %60, !prof !14

56:                                               ; preds = %php_array_key_compare_string_locale_unstable_i.exit
  %57 = getelementptr i8, ptr %0, i64 12
  %.val = load i32, ptr %57, align 4, !tbaa !8
  %58 = getelementptr i8, ptr %1, i64 12
  %.val7 = load i32, ptr %58, align 4, !tbaa !8
  %59 = tail call fastcc i32 @stable_sort_fallback(i32 %.val, i32 %.val7)
  br label %60

60:                                               ; preds = %php_array_key_compare_string_locale_unstable_i.exit, %56
  %.0 = phi i32 [ %59, %56 ], [ %55, %php_array_key_compare_string_locale_unstable_i.exit ]
  ret i32 %.0
}